
Allocating common symbols
Common symbol       size              file

tasks               0x110             batch.o
KernelStack         0x2000            batch.o

Memory Configuration

Name             Origin             Length             Attributes
ram              0x0000000080200000 0x0000000008000000 axrl !w
*default*        0x0000000000000000 0xffffffffffffffff

Linker script and memory map

LOAD entry.o
LOAD kerneltrap.o
LOAD sbi.o
LOAD main.o
LOAD printk.o
LOAD batch.o
LOAD trap.o

.text           0x0000000080200000      0xa2a
 *(.text .text.*)
 .text          0x0000000080200000        0x0 entry.o
 .text.entry    0x0000000080200000        0xc entry.o
                0x0000000080200000                _start
 *fill*         0x000000008020000c        0x4 
 .text          0x0000000080200010       0xc6 kerneltrap.o
                0x0000000080200010                __alltraps
                0x0000000080200070                __restore
 .text          0x00000000802000d6       0xb6 sbi.o
                0x00000000802000d6                sbi_ecall
                0x000000008020015e                sbi_console_putchar
 .text          0x000000008020018c       0x1a main.o
                0x000000008020018c                os_main
 .text          0x00000000802001a6      0x572 printk.o
                0x00000000802001a6                uart_puts
                0x0000000080200692                printk
                0x00000000802006ea                panic
 .text          0x0000000080200718      0x208 batch.o
                0x0000000080200766                syscall
                0x00000000802007aa                testsys
                0x00000000802007ce                app_init_context
 .text          0x0000000080200920      0x10a trap.o
                0x0000000080200954                trap_handler
                0x0000000080200a0a                trap_init

.rodata         0x0000000080200a30      0x18f
 *(.rodata .rodata.*)
 .rodata        0x0000000080200a30        0xa main.o
 *fill*         0x0000000080200a3a        0x6 
 .rodata        0x0000000080200a40       0x8a printk.o
 *fill*         0x0000000080200aca        0x6 
 .rodata        0x0000000080200ad0       0x92 batch.o
 *fill*         0x0000000080200b62        0x6 
 .rodata        0x0000000080200b68       0x57 trap.o

.rela.dyn       0x0000000080200bc0        0x0
 .rela.text     0x0000000080200bc0        0x0 entry.o

.data           0x0000000080200bbf      0x441
                0x0000000080201000                . = ALIGN (0x1000)
 *fill*         0x0000000080200bbf      0x441 
 *(.sdata .sdata.*)
 *(.data .data.*)
 .data          0x0000000080201000        0x0 entry.o
 .data          0x0000000080201000        0x0 kerneltrap.o
 .data          0x0000000080201000        0x0 sbi.o
 .data          0x0000000080201000        0x0 main.o
 .data          0x0000000080201000        0x0 printk.o
 .data          0x0000000080201000        0x0 batch.o
 .data          0x0000000080201000        0x0 trap.o
                [!provide]                        PROVIDE (_data_end = .)

.bss            0x0000000080201000    0x144f8
 *(.sbss .sbss.*)
 *(.bss .bss.*)
 .bss           0x0000000080201000        0x0 entry.o
 .bss.stack     0x0000000080201000    0x10000 entry.o
                0x0000000080201000                boot_stack_lower_bound
                0x0000000080211000                boot_stack_top
 .bss           0x0000000080211000        0x0 kerneltrap.o
 .bss           0x0000000080211000        0x0 sbi.o
 .bss           0x0000000080211000        0x0 main.o
 .bss           0x0000000080211000      0x3e8 printk.o
 .bss           0x00000000802113e8     0x2000 batch.o
                0x00000000802113e8                UserStack
 .bss           0x00000000802133e8        0x0 trap.o
 *(COMMON)
 COMMON         0x00000000802133e8     0x2110 batch.o
                0x00000000802133e8                tasks
                0x00000000802134f8                KernelStack
OUTPUT(os.elf elf64-littleriscv)

.riscv.attributes
                0x0000000000000000       0x35
 .riscv.attributes
                0x0000000000000000       0x33 entry.o
 .riscv.attributes
                0x0000000000000033       0x33 kerneltrap.o
 .riscv.attributes
                0x0000000000000066       0x35 sbi.o
 .riscv.attributes
                0x000000000000009b       0x35 main.o
 .riscv.attributes
                0x00000000000000d0       0x35 printk.o
 .riscv.attributes
                0x0000000000000105       0x35 batch.o
 .riscv.attributes
                0x000000000000013a       0x35 trap.o

.comment        0x0000000000000000        0xe
 .comment       0x0000000000000000        0xe sbi.o
                                          0xf (size before relaxing)
 .comment       0x000000000000000e        0xf main.o
 .comment       0x000000000000000e        0xf printk.o
 .comment       0x000000000000000e        0xf batch.o
 .comment       0x000000000000000e        0xf trap.o

.debug_line     0x0000000000000000      0xcda
 .debug_line    0x0000000000000000       0x40 entry.o
 .debug_line    0x0000000000000040      0x219 kerneltrap.o
 .debug_line    0x0000000000000259      0x12e sbi.o
 .debug_line    0x0000000000000387       0x55 main.o
 .debug_line    0x00000000000003dc      0x602 printk.o
 .debug_line    0x00000000000009de      0x206 batch.o
 .debug_line    0x0000000000000be4       0xf6 trap.o

.debug_info     0x0000000000000000      0xdd2
 .debug_info    0x0000000000000000       0x2e entry.o
 .debug_info    0x000000000000002e       0x2e kerneltrap.o
 .debug_info    0x000000000000005c      0x26b sbi.o
 .debug_info    0x00000000000002c7       0x87 main.o
 .debug_info    0x000000000000034e      0x361 printk.o
 .debug_info    0x00000000000006af      0x42d batch.o
 .debug_info    0x0000000000000adc      0x2f6 trap.o

.debug_abbrev   0x0000000000000000      0x505
 .debug_abbrev  0x0000000000000000       0x14 entry.o
 .debug_abbrev  0x0000000000000014       0x14 kerneltrap.o
 .debug_abbrev  0x0000000000000028       0xed sbi.o
 .debug_abbrev  0x0000000000000115       0x42 main.o
 .debug_abbrev  0x0000000000000157      0x13c printk.o
 .debug_abbrev  0x0000000000000293      0x162 batch.o
 .debug_abbrev  0x00000000000003f5      0x110 trap.o

.debug_aranges  0x0000000000000000      0x150
 .debug_aranges
                0x0000000000000000       0x30 entry.o
 .debug_aranges
                0x0000000000000030       0x30 kerneltrap.o
 .debug_aranges
                0x0000000000000060       0x30 sbi.o
 .debug_aranges
                0x0000000000000090       0x30 main.o
 .debug_aranges
                0x00000000000000c0       0x30 printk.o
 .debug_aranges
                0x00000000000000f0       0x30 batch.o
 .debug_aranges
                0x0000000000000120       0x30 trap.o

.debug_str      0x0000000000000000      0x3ef
 .debug_str     0x0000000000000000       0x3b entry.o
 .debug_str     0x000000000000003b        0xd kerneltrap.o
                                         0x40 (size before relaxing)
 .debug_str     0x0000000000000048      0x227 sbi.o
                                        0x28c (size before relaxing)
 .debug_str     0x000000000000026f       0x40 main.o
                                         0xfc (size before relaxing)
 .debug_str     0x00000000000002af       0x7d printk.o
                                        0x17e (size before relaxing)
 .debug_str     0x000000000000032c       0x94 batch.o
                                        0x1a5 (size before relaxing)
 .debug_str     0x00000000000003c0       0x2f trap.o
                                        0x147 (size before relaxing)

.debug_frame    0x0000000000000000      0x398
 .debug_frame   0x0000000000000000       0x70 sbi.o
 .debug_frame   0x0000000000000070       0x38 main.o
 .debug_frame   0x00000000000000a8       0xf8 printk.o
 .debug_frame   0x00000000000001a0      0x130 batch.o
 .debug_frame   0x00000000000002d0       0xc8 trap.o
